target datalayout = "e-m:e-p270:32:32-p271:32:32-p272:64:64-i64:64-i128:128-f80:128-n8:16:32:64-S128"
target triple = "x86_64-pc-linux-gnu"

%struct.bufferevent = type { ptr, ptr, %struct.event, %struct.event, ptr, ptr, %struct.event_watermark, %struct.event_watermark, ptr, ptr, ptr, ptr, %struct.timeval, %struct.timeval, i16 }
%struct.event = type { %struct.event_callback, %union.anon.0, i32, i16, i16, ptr, %union.anon.2, %struct.timeval }
%union.anon.0 = type { %struct.anon.1 }
%struct.anon.1 = type { ptr, ptr }
%union.anon.2 = type { %struct.anon.3 }
%struct.anon.3 = type { %struct.anon.4, %struct.timeval }
%struct.anon.4 = type { ptr, ptr }
%struct.event_watermark = type { i64, i64 }
%struct.timeval = type { i64, i64 }
%struct.event_callback = type { %struct.anon, i16, i8, i8, %union.anon, ptr }
%struct.anon = type { ptr, ptr }
%union.anon = type { ptr }

; Function Attrs: nounwind uwtable
define internal i32 @bio_bufferevent_write(ptr noundef %0, ptr noundef %1, i32 noundef %2) #0 {
  %4 = alloca i32, align 4
  %5 = alloca ptr, align 8
  %6 = alloca ptr, align 8
  %7 = alloca i32, align 4
  %8 = alloca ptr, align 8
  %9 = alloca ptr, align 8
  %10 = alloca i64, align 8
  %11 = alloca i32, align 4
  store ptr %0, ptr %5, align 8
  store ptr %1, ptr %6, align 8
  store i32 %2, ptr %7, align 4
  call void @llvm.lifetime.start.p0(i64 8, ptr %8) #5
  %12 = load ptr, ptr %5, align 8
  %13 = call ptr @BIO_get_data(ptr noundef %12)
  store ptr %13, ptr %8, align 8
  call void @llvm.lifetime.start.p0(i64 8, ptr %9) #5
  call void @llvm.lifetime.start.p0(i64 8, ptr %10) #5
  %14 = load ptr, ptr %5, align 8
  call void @BIO_clear_flags(ptr noundef %14, i32 noundef 15)
  %15 = load ptr, ptr %8, align 8
  %16 = icmp ne ptr %15, null
  br i1 %16, label %18, label %17

17:                                               ; preds = %3
  store i32 -1, ptr %4, align 4
  store i32 1, ptr %11, align 4
  br label %65

18:                                               ; preds = %3
  %19 = load ptr, ptr %8, align 8
  %20 = call ptr @bufferevent_get_output(ptr noundef %19)
  store ptr %20, ptr %9, align 8
  %21 = load ptr, ptr %9, align 8
  %22 = call i64 @evbuffer_get_length(ptr noundef %21)
  store i64 %22, ptr %10, align 8
  %23 = load ptr, ptr %8, align 8
  %24 = getelementptr inbounds nuw %struct.bufferevent, ptr %23, i32 0, i32 7
  %25 = getelementptr inbounds nuw %struct.event_watermark, ptr %24, i32 0, i32 1
  %26 = load i64, ptr %25, align 8
  %27 = icmp ne i64 %26, 0
  br i1 %27, label %28, label %55

28:                                               ; preds = %18
  %29 = load ptr, ptr %8, align 8
  %30 = getelementptr inbounds nuw %struct.bufferevent, ptr %29, i32 0, i32 7
  %31 = getelementptr inbounds nuw %struct.event_watermark, ptr %30, i32 0, i32 1
  %32 = load i64, ptr %31, align 8
  %33 = load i64, ptr %10, align 8
  %34 = load i32, ptr %7, align 4
  %35 = sext i32 %34 to i64
  %36 = add i64 %33, %35
  %37 = icmp ule i64 %32, %36
  br i1 %37, label %38, label %55

38:                                               ; preds = %28
  %39 = load ptr, ptr %8, align 8
  %40 = getelementptr inbounds nuw %struct.bufferevent, ptr %39, i32 0, i32 7
  %41 = getelementptr inbounds nuw %struct.event_watermark, ptr %40, i32 0, i32 1
  %42 = load i64, ptr %41, align 8
  %43 = load i64, ptr %10, align 8
  %44 = icmp ule i64 %42, %43
  br i1 %44, label %45, label %47

45:                                               ; preds = %38
  %46 = load ptr, ptr %5, align 8
  call void @BIO_set_flags(ptr noundef %46, i32 noundef 10)
  store i32 -1, ptr %4, align 4
  store i32 1, ptr %11, align 4
  br label %65

47:                                               ; preds = %38
  %48 = load ptr, ptr %8, align 8
  %49 = getelementptr inbounds nuw %struct.bufferevent, ptr %48, i32 0, i32 7
  %50 = getelementptr inbounds nuw %struct.event_watermark, ptr %49, i32 0, i32 1
  %51 = load i64, ptr %50, align 8
  %52 = load i64, ptr %10, align 8
  %53 = sub i64 %51, %52
  %54 = trunc i64 %53 to i32
  store i32 %54, ptr %7, align 4
  br label %55

55:                                               ; preds = %47, %28, %18
  br label %56

56:                                               ; preds = %55
  br label %57

57:                                               ; preds = %56
  br label %58

58:                                               ; preds = %57
  %59 = load ptr, ptr %9, align 8
  %60 = load ptr, ptr %6, align 8
  %61 = load i32, ptr %7, align 4
  %62 = sext i32 %61 to i64
  %63 = call i32 @evbuffer_add(ptr noundef %59, ptr noundef %60, i64 noundef %62)
  %64 = load i32, ptr %7, align 4
  store i32 %64, ptr %4, align 4
  store i32 1, ptr %11, align 4
  br label %65

65:                                               ; preds = %58, %45, %17
  call void @llvm.lifetime.end.p0(i64 8, ptr %10) #5
  call void @llvm.lifetime.end.p0(i64 8, ptr %9) #5
  call void @llvm.lifetime.end.p0(i64 8, ptr %8) #5
  %66 = load i32, ptr %4, align 4
  ret i32 %66
}