; Function Attrs: nounwind uwtable
define internal i32 @bio_bufferevent_write(ptr noundef %0, ptr noundef %1, i32 noundef %2) #0 {
  %4 = tail call ptr @BIO_get_data(ptr noundef %0) #5
  tail call void @BIO_clear_flags(ptr noundef %0, i32 noundef 15) #5
  %.not = icmp eq ptr %4, null
  br i1 %.not, label %21, label %5

5:                                                ; preds = %3
  %6 = tail call ptr @bufferevent_get_output(ptr noundef nonnull %4) #5
  %7 = tail call i64 @evbuffer_get_length(ptr noundef %6) #5
  %8 = getelementptr inbounds nuw i8, ptr %4, i64 296
  %9 = load i64, ptr %8, align 8
  %.not22 = icmp eq i64 %9, 0
  br i1 %.not22, label %18, label %10

10:                                               ; preds = %5
  %11 = sext i32 %2 to i64
  %12 = add i64 %7, %11
  %.not23 = icmp ugt i64 %9, %12
  br i1 %.not23, label %18, label %13

13:                                               ; preds = %10
  %.not24 = icmp ugt i64 %9, %7
  br i1 %.not24, label %15, label %14

14:                                               ; preds = %13
  tail call void @BIO_set_flags(ptr noundef %0, i32 noundef 10) #5
  br label %21

15:                                               ; preds = %13
  %16 = sub nuw i64 %9, %7
  %17 = trunc i64 %16 to i32
  br label %18

18:                                               ; preds = %5, %10, %15
  %.018 = phi i32 [ %17, %15 ], [ %2, %10 ], [ %2, %5 ]
  %19 = sext i32 %.018 to i64
  %20 = tail call i32 @evbuffer_add(ptr noundef %6, ptr noundef %1, i64 noundef %19) #5
  br label %21

21:                                               ; preds = %3, %18, %14
  %.0 = phi i32 [ -1, %14 ], [ %.018, %18 ], [ -1, %3 ]
  ret i32 %.0
}